(lp1
F0.00125
aF1
aF1
aF0
aF1
aF1
aF0.00062500000000000001
aF1
aF0.051749999999999997
aF1
aF0.041750000000000002
aF0.040500000000000001
aF0.035125000000000003
aF0.046124999999999999
aF1
aF1
aF0.044124999999999998
aF1
aF1
aF0.049125000000000002
aF1
aF1
aF0.040000000000000001
aF1
aF1
aF0.046875
aF1
aF1
aF0.035125000000000003
aF1
aF1
aF1
aF1
aF0.042375000000000003
aF1
aF1
aF1
aF1
aF0.043249999999999997
aF1
aF0.048500000000000001
aF1
aF1
aF1
aF0.040750000000000001
aF1
aF0.041375000000000002
aF1
aF1
aF0.045749999999999999
aF1
aF1
aF1
aF0.045499999999999999
aF1
aF0.050999999999999997
aF1
aF0.040125000000000001
aF1
aF1
aF0.036249999999999998
aF0.039625
aF0.046875
aF0.042500000000000003
aF1
aF1
aF0.053499999999999999
aF0.03875
aF1
aF1
aF0.058125000000000003
aF0.044874999999999998
aF1
aF0.048125000000000001
aF0.038249999999999999
aF1
aF1
aF1
aF1
aF0.073999999999999996
aF0.06563545150501672
a.