(lp1
F0.0022499999999999998
aF0
aF1
aF0.000125
aF1
aF0.0018749999999999999
aF0.00025000000000000001
aF1
aF0.026249999999999999
aF0.018124999999999999
aF0.018499999999999999
aF0.013875
aF0.013625
aF0.014500000000000001
aF0.019875
aF0.02
aF1
aF0.018874999999999999
aF0.017500000000000002
aF0.021624999999999998
aF0.024875000000000001
aF0.01575
aF1
aF0.025624999999999998
aF0.019125
aF0.021749999999999999
aF1
aF0.012999999999999999
aF1
aF0.020875000000000001
aF1
aF0.01925
aF0.017000000000000001
aF0.016625000000000001
aF0.014125
aF0.010375000000000001
aF0.017375000000000002
aF0.017500000000000002
aF0.020375000000000001
aF0.015875
aF1
aF0.016875000000000001
aF1
aF0.024750000000000001
aF0.019875
aF1
aF1
aF0.019125
aF1
aF0.017749999999999998
aF0.021749999999999999
aF0.017250000000000001
aF1
aF0.012749999999999999
aF1
aF1
aF1
aF0.021499999999999998
aF1
aF1
aF1
aF0.020250000000000001
aF0.016
aF0.016375000000000001
aF0.021749999999999999
aF0.019875
aF0.018874999999999999
aF1
aF0.016250000000000001
aF0.016250000000000001
aF1
aF0.026499999999999999
aF0.01375
aF0.017375000000000002
aF1
aF0.015375
aF1
aF1
aF0.0092499999999999995
aF0.039
aF0.0338628762541806
a.