(lp1
F0.00062500000000000001
aF0
aF0.00037500000000000001
aF0
aF0.0060000000000000001
aF0.0013749999999999999
aF0
aF1
aF0.010999999999999999
aF0.0155
aF0.010500000000000001
aF0.0064999999999999997
aF0.011375
aF0.0083750000000000005
aF0.012375000000000001
aF1
aF0.00975
aF0.014874999999999999
aF0.01325
aF0.0073749999999999996
aF0.014250000000000001
aF1
aF0.0195
aF0.011875
aF0.013125
aF0.013125
aF0.014749999999999999
aF0.016875000000000001
aF0.0074999999999999997
aF1
aF0.010375000000000001
aF0.010500000000000001
aF0.0070000000000000001
aF0.014874999999999999
aF1
aF0.013125
aF0.011124999999999999
aF0.0115
aF0.0086250000000000007
aF0.010125
aF1
aF0.010125
aF0.015375
aF0.011875
aF0.01175
aF0.0094999999999999998
aF1
aF0.011625
aF1
aF1
aF0.012625000000000001
aF0.0115
aF0.012625000000000001
aF0.0088749999999999992
aF0.0155
aF0.013375
aF0.0135
aF0.0072500000000000004
aF1
aF1
aF1
aF0.010874999999999999
aF0.011625
aF0.0093749999999999997
aF0.011625
aF1
aF0.016375000000000001
aF1
aF0.0089999999999999993
aF0.00975
aF0.01525
aF0.011375
aF1
aF1
aF1
aF0.0080000000000000002
aF0.01125
aF0.010625000000000001
aF0.086749999999999994
aF1
aF0.032608695652173912
a.