(lp1
F1
aF1
aF0.020750000000000001
aF0.00025000000000000001
aF0.35375000000000001
aF0.0063749999999999996
aF1
aF1
aF0.050125000000000003
aF1
aF0.032000000000000001
aF1
aF0.046249999999999999
aF0.041875000000000002
aF1
aF1
aF1
aF0.049000000000000002
aF1
aF1
aF0.040125000000000001
aF0.043874999999999997
aF1
aF0.042625000000000003
aF1
aF0.048500000000000001
aF1
aF1
aF0.048000000000000001
aF1
aF0.049625000000000002
aF1
aF0.049500000000000002
aF0.045124999999999998
aF1
aF0.047875000000000001
aF1
aF1
aF0.050500000000000003
aF1
aF1
aF0.046625
aF0.056875000000000002
aF0.050874999999999997
aF1
aF0.057125000000000002
aF0.041250000000000002
aF1
aF0.036874999999999998
aF0.49149999999999999
aF0.037999999999999999
aF1
aF1
aF1
aF0.046875
aF0.048375000000000001
aF0.041000000000000002
aF1
aF0.051374999999999997
aF1
aF1
aF1
aF0.048625000000000002
aF0.048250000000000001
aF0.060124999999999998
aF1
aF1
aF0.038124999999999999
aF1
aF1
aF0.055750000000000001
aF1
aF0.041375000000000002
aF0.037374999999999999
aF0.040250000000000001
aF0.043499999999999997
aF1
aF0.50424999999999998
aF1
aF0.24812500000000001
aF1
a.