(lp1
F0.0016249999999999999
aF0
aF0.022249999999999999
aF0
aF0.00062500000000000001
aF0.00087500000000000002
aF0
aF0.00175
aF0.0041250000000000002
aF0.0044999999999999997
aF0.0047499999999999999
aF0.002
aF0.0035000000000000001
aF0.0037499999999999999
aF0.00175
aF0.0051250000000000002
aF0.0023749999999999999
aF0.0091249999999999994
aF0.0027499999999999998
aF0.0036250000000000002
aF0.49862499999999998
aF0.0037499999999999999
aF0.0042500000000000003
aF1
aF0.003375
aF0.0022499999999999998
aF0.005875
aF0.003375
aF0.0091249999999999994
aF0.0056249999999999998
aF0.0067499999999999999
aF0.0022499999999999998
aF0.0050000000000000001
aF0.0052500000000000003
aF0.0050000000000000001
aF1
aF0.0062500000000000003
aF0.0016249999999999999
aF0.0040000000000000001
aF0.0035000000000000001
aF0.0044999999999999997
aF0.0011249999999999999
aF0.0062500000000000003
aF0.004875
aF1
aF0.0047499999999999999
aF0.0043750000000000004
aF0.004875
aF0.0037499999999999999
aF0.0031250000000000002
aF0.002875
aF0.0056249999999999998
aF0.0057499999999999999
aF0.0018749999999999999
aF0.0056249999999999998
aF0.0031250000000000002
aF0.0016249999999999999
aF1
aF0.0043750000000000004
aF0.0042500000000000003
aF0.0016249999999999999
aF0.005875
aF0.0041250000000000002
aF0.0037499999999999999
aF0.0078750000000000001
aF0.0037499999999999999
aF0.0030000000000000001
aF0.0052500000000000003
aF0.0050000000000000001
aF0.0036250000000000002
aF0.0046249999999999998
aF0.0046249999999999998
aF0.0050000000000000001
aF1
aF0.0013749999999999999
aF0.002875
aF0.0035000000000000001
aF0.0032499999999999999
aF0.0043750000000000004
aF0.019625
aF0.017697881828316612
a.