(lp1
F0.0032499999999999999
aF0
aF1
aF1
aF1
aF1
aF0.0044999999999999997
aF0.035999999999999997
aF1
aF1
aF0.035000000000000003
aF0.035624999999999997
aF0.046249999999999999
aF0.034875000000000003
aF1
aF1
aF0.045874999999999999
aF1
aF0.043124999999999997
aF0.042125000000000003
aF0.053249999999999999
aF1
aF1
aF0.040625000000000001
aF0.048500000000000001
aF0.0465
aF0.044374999999999998
aF1
aF1
aF1
aF1
aF1
aF0.047875000000000001
aF1
aF1
aF1
aF1
aF1
aF1
aF1
aF0.049625000000000002
aF1
aF1
aF1
aF1
aF1
aF0.043249999999999997
aF1
aF1
aF0.052124999999999998
aF0.052749999999999998
aF0.037999999999999999
aF0.0385
aF1
aF1
aF0.042500000000000003
aF0.042375000000000003
aF0.046249999999999999
aF1
aF1
aF1
aF1
aF1
aF0.044999999999999998
aF0.045499999999999999
aF0.049250000000000002
aF0.050625000000000003
aF1
aF0.043999999999999997
aF1
aF1
aF1
aF0.042500000000000003
aF1
aF1
aF1
aF1
aF1
aF1
aF1
aF1
a.