(lp1
F0.00062500000000000001
aF0
aF1
aF1
aF1
aF1
aF1
aF1
aF0.053624999999999999
aF1
aF1
aF1
aF0.042999999999999997
aF1
aF1
aF0.035125000000000003
aF1
aF1
aF1
aF0.048750000000000002
aF1
aF0.046124999999999999
aF0.052124999999999998
aF1
aF0.048000000000000001
aF1
aF0.048875000000000002
aF1
aF0.048875000000000002
aF1
aF1
aF0.042250000000000003
aF1
aF0.046124999999999999
aF1
aF0.044999999999999998
aF0.040125000000000001
aF0.036249999999999998
aF1
aF0.043499999999999997
aF0.041250000000000002
aF1
aF1
aF1
aF1
aF1
aF1
aF1
aF1
aF1
aF1
aF0.041500000000000002
aF0.048625000000000002
aF1
aF1
aF0.042875000000000003
aF1
aF1
aF0.041625000000000002
aF0.051999999999999998
aF1
aF0.047375
aF0.047500000000000001
aF1
aF1
aF0.039
aF1
aF1
aF0.049875000000000003
aF1
aF0.046625
aF1
aF1
aF1
aF0.035749999999999997
aF1
aF0.041750000000000002
aF1
aF1
aF1
aF0.066332218506131552
a.