(lp1
F1
aF1
aF1
aF1
aF1
aF1
aF0
aF0.012625000000000001
aF0.030124999999999999
aF0.028500000000000001
aF0.031
aF0.031375
aF0.031125
aF0.022749999999999999
aF0.028875000000000001
aF0.025874999999999999
aF0.017749999999999998
aF0.028500000000000001
aF0.024750000000000001
aF1
aF0.03175
aF1
aF0.034000000000000002
aF1
aF0.033125000000000002
aF1
aF1
aF1
aF1
aF1
aF0.028875000000000001
aF0.032500000000000001
aF0.040000000000000001
aF1
aF0.03175
aF0.032750000000000001
aF1
aF0.026499999999999999
aF0.034250000000000003
aF0.030249999999999999
aF0.034750000000000003
aF0.027125
aF0.029874999999999999
aF0.027
aF1
aF0.024625000000000001
aF0.50287499999999996
aF0.022749999999999999
aF0.027
aF0.033625000000000002
aF0.037499999999999999
aF0.034875000000000003
aF1
aF0.023625
aF0.030374999999999999
aF0.031875000000000001
aF0.026249999999999999
aF1
aF0.034750000000000003
aF0.028625000000000001
aF0.037999999999999999
aF0.032250000000000001
aF0.027
aF0.022875
aF1
aF1
aF0.024875000000000001
aF0.027875
aF1
aF0.030499999999999999
aF1
aF0.029374999999999998
aF1
aF0.039375
aF0.023375
aF0.035499999999999997
aF0.02775
aF1
aF0.022624999999999999
aF1
aF0.048634336677814936
a.