(lp1
F0
aF1
aF1
aF0
aF0.0013749999999999999
aF0.00050000000000000001
aF1
aF0.0018749999999999999
aF0.0057499999999999999
aF0.0027499999999999998
aF0.0013749999999999999
aF0.0035000000000000001
aF0.003375
aF0.0027499999999999998
aF0.0051250000000000002
aF0.0030000000000000001
aF1
aF0.0026250000000000002
aF0.0037499999999999999
aF0.0047499999999999999
aF0.0050000000000000001
aF0.0022499999999999998
aF0.0043750000000000004
aF0.0031250000000000002
aF0.0074999999999999997
aF0.0047499999999999999
aF0.0052500000000000003
aF0.0016249999999999999
aF0.0043750000000000004
aF0.004875
aF0.0037499999999999999
aF0.0061250000000000002
aF1
aF0.003875
aF0.0032499999999999999
aF0.0051250000000000002
aF0.0047499999999999999
aF0.0082500000000000004
aF0.0043750000000000004
aF0.0057499999999999999
aF0.0057499999999999999
aF0.0016249999999999999
aF0.0063749999999999996
aF0.006875
aF0.0040000000000000001
aF0.002875
aF0.0054999999999999997
aF0.0042500000000000003
aF0.0057499999999999999
aF0.0035000000000000001
aF1
aF0.0056249999999999998
aF0.0056249999999999998
aF0.0021250000000000002
aF0.0063749999999999996
aF0.0041250000000000002
aF0.0025000000000000001
aF0.0040000000000000001
aF0.002875
aF0.0050000000000000001
aF0.002
aF1
aF0.0070000000000000001
aF0.0018749999999999999
aF0.006875
aF0.002875
aF0.0061250000000000002
aF0.0021250000000000002
aF0.0061250000000000002
aF0.0035000000000000001
aF0.0070000000000000001
aF0.0051250000000000002
aF0.0060000000000000001
aF0.004875
aF0.004875
aF0.0042500000000000003
aF0.0016249999999999999
aF0.0036250000000000002
aF0.0051250000000000002
aF0.056250000000000001
aF1
a.