(lp1
F0.00075000000000000002
aF0
aF1
aF0
aF0.0021250000000000002
aF0.00087500000000000002
aF0
aF0.0042500000000000003
aF0.010874999999999999
aF0.0080000000000000002
aF0.004875
aF0.0088749999999999992
aF0.005875
aF1
aF0.0053749999999999996
aF0.0085000000000000006
aF0.006875
aF0.0071250000000000003
aF0.0062500000000000003
aF0.0074999999999999997
aF0.0066249999999999998
aF0.0089999999999999993
aF0.0073749999999999996
aF1
aF0.0082500000000000004
aF0.0071250000000000003
aF0.0092499999999999995
aF0.0047499999999999999
aF0.0094999999999999998
aF0.010375000000000001
aF1
aF0.0083750000000000005
aF0.006875
aF0.0094999999999999998
aF0.0088749999999999992
aF0.0081250000000000003
aF0.0076249999999999998
aF1
aF0.0096249999999999999
aF0.0061250000000000002
aF0.0089999999999999993
aF0.0089999999999999993
aF0.0067499999999999999
aF0.006875
aF0.0088749999999999992
aF0.0063749999999999996
aF1
aF0.0041250000000000002
aF0.0064999999999999997
aF0.0083750000000000005
aF0.0074999999999999997
aF0.0042500000000000003
aF0.0070000000000000001
aF0.0083750000000000005
aF0.0077499999999999999
aF0.010625000000000001
aF1
aF0.010375000000000001
aF0.0073749999999999996
aF0.00975
aF0.0056249999999999998
aF0.006875
aF0.0050000000000000001
aF0.0091249999999999994
aF0.0062500000000000003
aF1
aF0.0072500000000000004
aF1
aF0.0080000000000000002
aF0.0064999999999999997
aF0.0060000000000000001
aF0.0094999999999999998
aF0.0072500000000000004
aF0.010125
aF0.0078750000000000001
aF0.0067499999999999999
aF0.0082500000000000004
aF0.0064999999999999997
aF0.0087500000000000008
aF0.023375
aF0.016583054626532888
a.