(lp1
F0.00075000000000000002
aF0
aF0
aF0
aF0.0027499999999999998
aF0.00037500000000000001
aF0
aF0.0023749999999999999
aF0.0078750000000000001
aF0.0057499999999999999
aF0.0050000000000000001
aF0.0072500000000000004
aF0.0081250000000000003
aF0.0098750000000000001
aF0.0057499999999999999
aF0.0057499999999999999
aF0.006875
aF0.0057499999999999999
aF0.0070000000000000001
aF0.0044999999999999997
aF0.0070000000000000001
aF0.0050000000000000001
aF0.0071250000000000003
aF0.0091249999999999994
aF0.0076249999999999998
aF0.010375000000000001
aF0.0063749999999999996
aF0.0067499999999999999
aF0.0076249999999999998
aF0.010500000000000001
aF0.0086250000000000007
aF1
aF0.01025
aF0.0082500000000000004
aF0.012
aF0.01
aF0.0080000000000000002
aF1
aF0.0078750000000000001
aF0.0051250000000000002
aF0.006875
aF0.0066249999999999998
aF0.006875
aF0.0053749999999999996
aF0.0071250000000000003
aF0.005875
aF0.0077499999999999999
aF0.005875
aF0.0046249999999999998
aF0.0078750000000000001
aF0.0067499999999999999
aF0.0062500000000000003
aF0.0073749999999999996
aF0.0096249999999999999
aF0.0072500000000000004
aF1
aF0.0082500000000000004
aF1
aF0.0071250000000000003
aF0.0061250000000000002
aF0.0078750000000000001
aF0.0060000000000000001
aF0.0050000000000000001
aF0.0082500000000000004
aF0.0076249999999999998
aF1
aF0.0080000000000000002
aF0.0067499999999999999
aF0.010500000000000001
aF0.0078750000000000001
aF0.0057499999999999999
aF0.0057499999999999999
aF0.0085000000000000006
aF0.0089999999999999993
aF0.0077499999999999999
aF0.0070000000000000001
aF0.010125
aF0.0076249999999999998
aF0.045124999999999998
aF1
aF0.020903010033444816
a.