(lp1
F0
aF0
aF0
aF0
aF0.0018749999999999999
aF0.00037500000000000001
aF0
aF0.0057499999999999999
aF0.016375000000000001
aF0.014125
aF0.010125
aF0.01025
aF0.0098750000000000001
aF0.010500000000000001
aF0.00975
aF0.0115
aF0.012125
aF0.01025
aF0.0086250000000000007
aF1
aF1
aF0.0078750000000000001
aF1
aF0.010874999999999999
aF1
aF0.012
aF0.011124999999999999
aF1
aF0.013375
aF0.013125
aF0.012
aF0.011875
aF0.0082500000000000004
aF0.010749999999999999
aF0.011625
aF0.01325
aF0.0115
aF0.01325
aF0.011124999999999999
aF0.014375000000000001
aF0.0093749999999999997
aF0.014625000000000001
aF0.01175
aF0.012625000000000001
aF0.01
aF1
aF0.014375000000000001
aF0.01025
aF0.0092499999999999995
aF1
aF0.0092499999999999995
aF0.010375000000000001
aF0.014500000000000001
aF0.0085000000000000006
aF0.012999999999999999
aF0.01225
aF0.0098750000000000001
aF0.015125
aF0.013625
aF0.010500000000000001
aF0.010749999999999999
aF0.01175
aF0.015625
aF0.013375
aF0.010375000000000001
aF0.014999999999999999
aF0.012749999999999999
aF0.012749999999999999
aF0.00975
aF0.015125
aF0.01325
aF1
aF0.011625
aF0.01175
aF0.01225
aF0.011625
aF0.014375000000000001
aF1
aF1
aF1
aF1
a.