(lp1
F0.000125
aF1
aF0.00037500000000000001
aF0
aF0.010375000000000001
aF1
aF0.32350000000000001
aF1
aF0.018124999999999999
aF0.025000000000000001
aF1
aF0.01975
aF0.016625000000000001
aF0.018624999999999999
aF0.024625000000000001
aF1
aF0.020125000000000001
aF0.022124999999999999
aF0.014874999999999999
aF0.02775
aF0.01325
aF1
aF0.018624999999999999
aF1
aF0.023
aF0.022875
aF0.020500000000000001
aF0.01575
aF0.018249999999999999
aF0.020500000000000001
aF1
aF0.021874999999999999
aF0.019625
aF1
aF0.017500000000000002
aF1
aF1
aF0.017999999999999999
aF1
aF0.022249999999999999
aF0.017500000000000002
aF0.021624999999999998
aF0.022875
aF1
aF0.016250000000000001
aF0.014999999999999999
aF0.020125000000000001
aF0.014250000000000001
aF1
aF1
aF0.016875000000000001
aF0.018874999999999999
aF0.022124999999999999
aF0.023125
aF0.020375000000000001
aF1
aF0.020375000000000001
aF0.020875000000000001
aF0.018624999999999999
aF0.028250000000000001
aF1
aF0.0195
aF0.014874999999999999
aF1
aF0.022875
aF0.017624999999999998
aF0.017624999999999998
aF1
aF1
aF0.015625
aF0.020875000000000001
aF0.017624999999999998
aF0.024625000000000001
aF0.017375000000000002
aF0.014874999999999999
aF0.021624999999999998
aF0.085125000000000006
aF1
aF0.010625000000000001
aF0.033500000000000002
aF1
a.