(lp1
F1
aF1
aF1
aF1
aF1
aF1
aF1
aF1
aF1
aF1
aF1
aF1
aF1
aF1
aF1
aF1
aF1
aF1
aF1
aF1
aF1
aF1
aF1
aF1
aF1
aF1
aF1
aF1
aF1
aF1
aF1
aF1
aF1
aF0.13262499999999999
aF1
aF0.1285
aF1
aF1
aF0.49762499999999998
aF1
aF1
aF1
aF1
aF1
aF1
aF1
aF1
aF1
aF1
aF1
aF1
aF1
aF1
aF1
aF1
aF1
aF1
aF1
aF1
aF1
aF1
aF1
aF1
aF1
aF1
aF0.50524999999999998
aF1
aF1
aF1
aF1
aF1
aF1
aF1
aF1
aF1
aF0.15162500000000001
aF1
aF1
aF1
aF0.14712500000000001
aF1
a.