(lp1
F1
aF1
aF1
aF1
aF1
aF1
aF1
aF1
aF1
aF1
aF1
aF1
aF0.10000000000000001
aF1
aF1
aF1
aF0.095500000000000002
aF1
aF1
aF0.091499999999999998
aF1
aF1
aF1
aF1
aF1
aF1
aF1
aF1
aF1
aF1
aF1
aF1
aF1
aF0.094875000000000001
aF1
aF0.092999999999999999
aF1
aF1
aF1
aF1
aF1
aF1
aF1
aF1
aF1
aF1
aF0.10324999999999999
aF1
aF1
aF1
aF1
aF0.076124999999999998
aF1
aF1
aF1
aF1
aF1
aF1
aF1
aF1
aF1
aF1
aF1
aF1
aF1
aF1
aF1
aF1
aF1
aF0.089874999999999997
aF1
aF1
aF0.098125000000000004
aF1
aF0.088749999999999996
aF1
aF1
aF0.049375000000000002
aF1
aF0.10911371237458194
a.