(lp1
F0.0032499999999999999
aF0.0011249999999999999
aF1
aF1
aF1
aF1
aF1
aF1
aF1
aF1
aF0.055750000000000001
aF1
aF1
aF1
aF1
aF1
aF1
aF1
aF1
aF1
aF1
aF0.064375000000000002
aF1
aF1
aF1
aF1
aF0.064875000000000002
aF1
aF1
aF1
aF1
aF1
aF1
aF1
aF1
aF0.067500000000000004
aF0.066625000000000004
aF1
aF0.49149999999999999
aF1
aF1
aF1
aF0.065375000000000003
aF1
aF1
aF0.50475000000000003
aF1
aF1
aF1
aF1
aF1
aF1
aF1
aF0.059499999999999997
aF1
aF1
aF0.071874999999999994
aF1
aF0.068750000000000006
aF0.057750000000000003
aF1
aF1
aF1
aF0.068875000000000006
aF1
aF1
aF1
aF1
aF0.062125
aF1
aF1
aF1
aF1
aF0.064250000000000002
aF1
aF0.052374999999999998
aF1
aF1
aF1
aF1
a.