(lp1
F1
aF1
aF1
aF1
aF1
aF1
aF1
aF1
aF1
aF1
aF1
aF1
aF1
aF1
aF0.10212499999999999
aF1
aF1
aF1
aF1
aF1
aF0.49237500000000001
aF1
aF1
aF1
aF1
aF1
aF1
aF1
aF0.095875000000000002
aF1
aF1
aF1
aF1
aF1
aF1
aF0.10212499999999999
aF1
aF1
aF1
aF1
aF1
aF1
aF1
aF1
aF1
aF1
aF0.51024999999999998
aF0.49962499999999999
aF1
aF1
aF1
aF1
aF1
aF1
aF1
aF0.094625000000000001
aF1
aF1
aF1
aF1
aF1
aF1
aF1
aF1
aF1
aF1
aF1
aF0.086374999999999993
aF0.090749999999999997
aF1
aF1
aF1
aF1
aF1
aF1
aF1
aF1
aF1
aF1
aF1
aF1
a.