(lp1
F1
aF0.0047499999999999999
aF1
aF1
aF1
aF1
aF1
aF0.053999999999999999
aF1
aF0.094375000000000001
aF1
aF1
aF1
aF1
aF0.091999999999999998
aF1
aF1
aF0.218
aF1
aF1
aF1
aF1
aF1
aF0.094750000000000001
aF1
aF1
aF1
aF1
aF1
aF1
aF0.077124999999999999
aF1
aF1
aF1
aF1
aF1
aF1
aF1
aF1
aF0.091749999999999998
aF1
aF1
aF1
aF1
aF1
aF1
aF1
aF1
aF1
aF1
aF1
aF1
aF1
aF1
aF1
aF1
aF1
aF0.084875000000000006
aF1
aF0.090249999999999997
aF1
aF1
aF1
aF1
aF1
aF1
aF1
aF0.10150000000000001
aF1
aF1
aF0.091499999999999998
aF1
aF1
aF1
aF1
aF1
aF1
aF1
aF1
aF0.10744147157190635
a.