(lp1
F0.000125
aF0
aF1
aF0.0031250000000000002
aF0.010500000000000001
aF0.0027499999999999998
aF1
aF0.0063749999999999996
aF0.018749999999999999
aF1
aF0.018124999999999999
aF0.020500000000000001
aF0.016750000000000001
aF0.013875
aF0.016750000000000001
aF0.018624999999999999
aF1
aF0.022749999999999999
aF0.020875000000000001
aF0.016250000000000001
aF0.020500000000000001
aF1
aF0.0275
aF0.017125000000000001
aF1
aF1
aF0.020750000000000001
aF0.017874999999999999
aF0.019125
aF1
aF0.018499999999999999
aF0.01925
aF1
aF0.018624999999999999
aF0.020125000000000001
aF1
aF0.018624999999999999
aF1
aF1
aF0.017624999999999998
aF1
aF0.01575
aF0.014500000000000001
aF0.016375000000000001
aF0.021874999999999999
aF0.018499999999999999
aF0.014500000000000001
aF0.014
aF0.013375
aF0.015875
aF1
aF0.022249999999999999
aF0.024375000000000001
aF0.02375
aF0.016250000000000001
aF1
aF0.018749999999999999
aF1
aF0.014625000000000001
aF0.016250000000000001
aF0.017500000000000002
aF0.014874999999999999
aF1
aF0.017624999999999998
aF0.027
aF1
aF0.016625000000000001
aF0.027125
aF1
aF0.018124999999999999
aF0.019375
aF0.025749999999999999
aF0.025250000000000002
aF0.021624999999999998
aF0.0135
aF0.021999999999999999
aF1
aF1
aF0.10925
aF1
aF1
a.