(lp1
F1
aF1
aF1
aF1
aF1
aF1
aF1
aF1
aF1
aF1
aF1
aF1
aF1
aF1
aF1
aF1
aF1
aF1
aF1
aF1
aF1
aF1
aF1
aF1
aF1
aF1
aF1
aF1
aF1
aF1
aF1
aF1
aF1
aF1
aF1
aF1
aF1
aF1
aF1
aF1
aF1
aF1
aF1
aF1
aF1
aF1
aF1
aF1
aF1
aF1
aF1
aF1
aF1
aF1
aF1
aF1
aF1
aF1
aF1
aF1
aF1
aF1
aF0.173125
aF1
aF1
aF1
aF1
aF1
aF1
aF1
aF1
aF1
aF1
aF1
aF1
aF1
aF1
aF1
aF1
aF1
aF1
a.