(lp1
F0.0047499999999999999
aF1
aF0.002
aF0
aF1
aF0.0070000000000000001
aF1
aF1
aF0.050874999999999997
aF1
aF0.036999999999999998
aF1
aF0.5
aF1
aF1
aF0.045749999999999999
aF1
aF0.047125
aF1
aF1
aF0.037249999999999998
aF0.0395
aF1
aF0.036374999999999998
aF1
aF0.041375000000000002
aF0.044624999999999998
aF1
aF1
aF0.048750000000000002
aF0.040625000000000001
aF0.048000000000000001
aF0.037499999999999999
aF0.05525
aF1
aF1
aF1
aF1
aF0.041250000000000002
aF0.045374999999999999
aF1
aF0.054375
aF0.041375000000000002
aF0.042375000000000003
aF0.50237500000000002
aF1
aF1
aF1
aF1
aF1
aF0.046625
aF0.043999999999999997
aF0.044999999999999998
aF0.042750000000000003
aF0.057250000000000002
aF0.050874999999999997
aF0.040625000000000001
aF0.49275000000000002
aF0.040375000000000001
aF0.057000000000000002
aF1
aF0.046375
aF1
aF1
aF1
aF1
aF0.040375000000000001
aF0.054875
aF0.052124999999999998
aF1
aF0.045249999999999999
aF0.049625000000000002
aF1
aF1
aF0.035749999999999997
aF1
aF1
aF1
aF1
aF1
aF1
a.