(lp1
F0.00037500000000000001
aF1
aF0.00075000000000000002
aF0
aF0.002
aF0
aF0
aF0.0011249999999999999
aF0.0070000000000000001
aF0.0041250000000000002
aF0.003375
aF0.0025000000000000001
aF1
aF0.0025000000000000001
aF0.0030000000000000001
aF0.002875
aF0.0053749999999999996
aF0.003875
aF0.0036250000000000002
aF0.0030000000000000001
aF0.0022499999999999998
aF0.0027499999999999998
aF0.0066249999999999998
aF0.0052500000000000003
aF0.0064999999999999997
aF0.0051250000000000002
aF0.0076249999999999998
aF0.0072500000000000004
aF0.003875
aF0.0052500000000000003
aF0.002875
aF0.0064999999999999997
aF0.003875
aF0.0036250000000000002
aF0.0064999999999999997
aF0.0042500000000000003
aF0.0022499999999999998
aF0.0044999999999999997
aF0.0031250000000000002
aF0.0022499999999999998
aF0.0037499999999999999
aF0.0044999999999999997
aF0.0037499999999999999
aF0.002875
aF0.0035000000000000001
aF0.004875
aF0.004875
aF0.0047499999999999999
aF0.0031250000000000002
aF0.0077499999999999999
aF0.004875
aF0.0022499999999999998
aF0.0062500000000000003
aF0.004875
aF0.0064999999999999997
aF0.0032499999999999999
aF0.0021250000000000002
aF0.0053749999999999996
aF0.0035000000000000001
aF0.0025000000000000001
aF0.0042500000000000003
aF0.0067499999999999999
aF0.0030000000000000001
aF0.0052500000000000003
aF0.0044999999999999997
aF0.0070000000000000001
aF1
aF0.002875
aF0.0077499999999999999
aF0.0040000000000000001
aF0.0031250000000000002
aF0.0044999999999999997
aF0.0023749999999999999
aF0.0026250000000000002
aF0.0040000000000000001
aF0.0025000000000000001
aF0.004875
aF0.005875
aF0.0040000000000000001
aF0.016250000000000001
aF0.010730211817168338
a.