(lp1
F0.0011249999999999999
aF1
aF0.00025000000000000001
aF0
aF0.013875
aF0.0071250000000000003
aF0.00025000000000000001
aF1
aF1
aF0.028750000000000001
aF1
aF0.029999999999999999
aF1
aF0.023375
aF0.027
aF1
aF1
aF0.03075
aF1
aF0.026499999999999999
aF0.024500000000000001
aF0.032375000000000001
aF0.029250000000000002
aF0.037249999999999998
aF0.028500000000000001
aF1
aF1
aF1
aF0.035000000000000003
aF1
aF0.49249999999999999
aF0.026124999999999999
aF1
aF0.02775
aF1
aF0.029374999999999998
aF0.036499999999999998
aF0.021874999999999999
aF1
aF1
aF0.034750000000000003
aF1
aF1
aF0.033375000000000002
aF1
aF1
aF1
aF0.026249999999999999
aF1
aF1
aF0.024250000000000001
aF1
aF0.030499999999999999
aF1
aF1
aF1
aF1
aF0.03125
aF0.034625000000000003
aF1
aF1
aF0.030374999999999999
aF1
aF1
aF0.035874999999999997
aF1
aF1
aF0.028250000000000001
aF1
aF0.030249999999999999
aF0.031875000000000001
aF0.49825000000000003
aF0.033000000000000002
aF1
aF0.49387500000000001
aF1
aF0.034125000000000003
aF0.014375000000000001
aF1
aF1
aF0.059085841694537344
a.