(lp1
F1
aF1
aF1
aF1
aF1
aF1
aF1
aF0.048375000000000001
aF0.063125000000000001
aF1
aF0.05425
aF1
aF1
aF1
aF1
aF1
aF1
aF0.49512499999999998
aF1
aF1
aF1
aF1
aF1
aF1
aF1
aF0.05475
aF1
aF1
aF1
aF1
aF0.068375000000000005
aF1
aF0.068875000000000006
aF1
aF1
aF1
aF1
aF1
aF0.055125
aF1
aF0.078625
aF1
aF1
aF0.065000000000000002
aF1
aF1
aF0.063
aF1
aF1
aF1
aF1
aF1
aF1
aF1
aF1
aF0.056125000000000001
aF0.069250000000000006
aF0.49837500000000001
aF1
aF1
aF1
aF1
aF1
aF1
aF1
aF0.064500000000000002
aF1
aF1
aF1
aF1
aF0.065250000000000002
aF1
aF0.067500000000000004
aF1
aF0.060374999999999998
aF1
aF1
aF1
aF1
aF1
aF1
a.