(lp1
F0.0011249999999999999
aF0
aF0.0044999999999999997
aF1
aF1
aF1
aF1
aF1
aF1
aF0.061374999999999999
aF1
aF0.064250000000000002
aF1
aF1
aF1
aF1
aF0.064375000000000002
aF1
aF1
aF1
aF1
aF0.070874999999999994
aF1
aF1
aF0.070624999999999993
aF1
aF1
aF1
aF1
aF1
aF0.059124999999999997
aF1
aF1
aF0.067125000000000004
aF1
aF1
aF1
aF1
aF1
aF0.061624999999999999
aF0.066500000000000004
aF1
aF1
aF1
aF1
aF1
aF1
aF1
aF1
aF1
aF1
aF0.058375000000000003
aF0.076124999999999998
aF0.068625000000000005
aF1
aF1
aF0.49937500000000001
aF1
aF1
aF1
aF1
aF1
aF1
aF1
aF1
aF0.055875000000000001
aF1
aF1
aF1
aF1
aF1
aF1
aF1
aF0.069250000000000006
aF1
aF1
aF1
aF1
aF1
aF0.085999999999999993
aF0.086817168338907472
a.