(lp1
F0.000125
aF0
aF1
aF0.00037500000000000001
aF0.36099999999999999
aF0.0011249999999999999
aF0
aF0.0098750000000000001
aF1
aF0.0083750000000000005
aF0.016
aF0.013625
aF0.0155
aF0.011625
aF0.012874999999999999
aF0.010500000000000001
aF0.011875
aF0.013625
aF0.014375000000000001
aF0.013625
aF0.01175
aF0.010500000000000001
aF0.011625
aF0.01225
aF0.012
aF1
aF0.015125
aF0.01225
aF0.006875
aF0.0091249999999999994
aF0.012500000000000001
aF0.0135
aF0.015875
aF0.011124999999999999
aF0.010375000000000001
aF1
aF0.0088749999999999992
aF0.016625000000000001
aF1
aF1
aF0.010125
aF0.015125
aF0.01575
aF0.0085000000000000006
aF1
aF0.014625000000000001
aF0.011875
aF0.01375
aF1
aF0.005875
aF0.012874999999999999
aF0.011124999999999999
aF0.0093749999999999997
aF0.010999999999999999
aF0.0082500000000000004
aF0.01225
aF0.014999999999999999
aF0.01175
aF0.01
aF0.0094999999999999998
aF0.010375000000000001
aF0.012999999999999999
aF0.0195
aF0.014999999999999999
aF0.017375000000000002
aF0.0096249999999999999
aF0.010874999999999999
aF0.015125
aF0.012999999999999999
aF0.0092499999999999995
aF0.0086250000000000007
aF0.010874999999999999
aF0.0098750000000000001
aF0.013625
aF0.010500000000000001
aF0.0083750000000000005
aF1
aF0.014999999999999999
aF0.011875
aF0.025375000000000002
aF0.036231884057971016
a.