(lp1
F0
aF0
aF0
aF1
aF0.0093749999999999997
aF0.002
aF0
aF0.005875
aF0.017125000000000001
aF1
aF0.02
aF1
aF0.016500000000000001
aF1
aF1
aF0.013125
aF0.019875
aF0.022124999999999999
aF0.015875
aF0.015875
aF1
aF0.02325
aF0.020500000000000001
aF0.018749999999999999
aF0.018124999999999999
aF1
aF0.020625000000000001
aF0.016250000000000001
aF1
aF0.022249999999999999
aF1
aF0.016500000000000001
aF0.018124999999999999
aF1
aF0.022374999999999999
aF0.024750000000000001
aF1
aF0.015125
aF0.018249999999999999
aF0.020125000000000001
aF1
aF0.016125
aF1
aF0.01375
aF1
aF0.018249999999999999
aF0.012625000000000001
aF1
aF1
aF0.032250000000000001
aF0.016125
aF0.020375000000000001
aF0.017874999999999999
aF0.018749999999999999
aF1
aF1
aF0.019875
aF1
aF0.013375
aF1
aF0.019
aF0.022875
aF0.01375
aF0.016875000000000001
aF0.022374999999999999
aF1
aF1
aF1
aF1
aF1
aF0.020875000000000001
aF1
aF1
aF0.022374999999999999
aF0.01575
aF0.016750000000000001
aF1
aF1
aF1
aF1
aF0.036649944258639912
a.