(lp1
F1
aF0
aF1
aF1
aF1
aF1
aF1
aF1
aF0.032500000000000001
aF1
aF1
aF1
aF0.028625000000000001
aF1
aF1
aF0.029250000000000002
aF0.03125
aF1
aF1
aF1
aF0.032500000000000001
aF0.02725
aF1
aF0.033000000000000002
aF1
aF0.032000000000000001
aF0.029125000000000002
aF0.027875
aF0.030124999999999999
aF0.032750000000000001
aF0.030124999999999999
aF1
aF0.024625000000000001
aF0.026749999999999999
aF0.03125
aF0.033500000000000002
aF1
aF0.033875000000000002
aF1
aF0.0235
aF0.03125
aF0.027875
aF0.028500000000000001
aF0.028000000000000001
aF0.034500000000000003
aF1
aF1
aF0.026875
aF0.021999999999999999
aF0.033250000000000002
aF1
aF0.032125000000000001
aF0.025250000000000002
aF1
aF0.034375000000000003
aF1
aF0.020250000000000001
aF0.034500000000000003
aF0.030249999999999999
aF0.025499999999999998
aF1
aF1
aF0.032375000000000001
aF0.027625
aF0.044999999999999998
aF0.024875000000000001
aF1
aF1
aF0.040625000000000001
aF1
aF1
aF0.035624999999999997
aF0.023125
aF1
aF0.0315
aF0.18012500000000001
aF1
aF1
aF1
aF1
aF0.04807692307692308
a.