(lp1
F1
aF0.0195
aF0.024500000000000001
aF1
aF1
aF1
aF1
aF1
aF1
aF0.056625000000000002
aF1
aF1
aF1
aF1
aF1
aF0.0625
aF1
aF0.063250000000000001
aF1
aF1
aF1
aF0.064250000000000002
aF0.0625
aF1
aF0.060749999999999998
aF0.074499999999999997
aF0.077249999999999999
aF1
aF0.065625000000000003
aF1
aF1
aF0.066000000000000003
aF1
aF1
aF1
aF0.070749999999999993
aF1
aF0.063750000000000001
aF0.055375000000000001
aF0.073124999999999996
aF0.064500000000000002
aF0.49875000000000003
aF1
aF1
aF0.50337500000000002
aF1
aF1
aF0.071999999999999995
aF1
aF1
aF1
aF0.060374999999999998
aF1
aF1
aF1
aF1
aF0.048750000000000002
aF0.074499999999999997
aF1
aF1
aF1
aF0.069000000000000006
aF1
aF1
aF1
aF1
aF0.067375000000000004
aF1
aF1
aF1
aF1
aF0.065625000000000003
aF1
aF0.065625000000000003
aF1
aF1
aF1
aF1
aF1
aF1
aF1
a.