(lp1
F0.00125
aF0
aF0.00050000000000000001
aF1
aF0.010625000000000001
aF0.0041250000000000002
aF0
aF1
aF0.020375000000000001
aF0.017999999999999999
aF0.017250000000000001
aF0.019
aF1
aF0.017125000000000001
aF0.020750000000000001
aF0.0235
aF1
aF0.018374999999999999
aF0.017874999999999999
aF1
aF1
aF0.017749999999999998
aF0.017749999999999998
aF0.017250000000000001
aF0.025250000000000002
aF0.02
aF0.025250000000000002
aF1
aF0.019875
aF0.017874999999999999
aF0.020625000000000001
aF0.020875000000000001
aF0.020875000000000001
aF1
aF0.017125000000000001
aF0.024
aF0.016
aF0.020875000000000001
aF0.024500000000000001
aF0.02
aF0.017624999999999998
aF0.020375000000000001
aF0.011875
aF1
aF0.014
aF0.01525
aF0.017125000000000001
aF1
aF0.01925
aF1
aF0.028125000000000001
aF0.013875
aF0.017500000000000002
aF0.015125
aF0.01525
aF0.020625000000000001
aF0.014250000000000001
aF0.019875
aF0.020750000000000001
aF1
aF0.020750000000000001
aF0.020375000000000001
aF1
aF0.017000000000000001
aF0.013875
aF0.021125000000000001
aF0.018374999999999999
aF1
aF0.020125000000000001
aF0.012375000000000001
aF0.01325
aF1
aF0.018624999999999999
aF1
aF1
aF0.017999999999999999
aF0.017250000000000001
aF1
aF0.021874999999999999
aF1
aF1
a.