(lp1
F1
aF0
aF0.00087500000000000002
aF0
aF1
aF0.0047499999999999999
aF1
aF1
aF1
aF0.032500000000000001
aF1
aF1
aF0.035749999999999997
aF1
aF1
aF0.026249999999999999
aF0.030374999999999999
aF1
aF0.025499999999999998
aF0.028375000000000001
aF1
aF0.029624999999999999
aF0.026749999999999999
aF1
aF1
aF1
aF1
aF0.024875000000000001
aF0.029999999999999999
aF0.042625000000000003
aF0.027125
aF1
aF1
aF0.025499999999999998
aF0.031
aF1
aF0.030624999999999999
aF0.026374999999999999
aF0.032000000000000001
aF1
aF0.028625000000000001
aF0.032625000000000001
aF0.03175
aF1
aF0.033250000000000002
aF1
aF0.029374999999999998
aF1
aF0.029250000000000002
aF1
aF0.036374999999999998
aF1
aF0.032125000000000001
aF1
aF0.043749999999999997
aF1
aF1
aF1
aF0.029374999999999998
aF0.032625000000000001
aF0.021000000000000001
aF0.031875000000000001
aF1
aF0.026249999999999999
aF1
aF1
aF1
aF0.026249999999999999
aF0.028750000000000001
aF1
aF0.030124999999999999
aF1
aF1
aF0.029374999999999998
aF0.026499999999999999
aF0.024250000000000001
aF1
aF0.017375000000000002
aF0.022249999999999999
aF0.055750000000000001
aF0.14450947603121517
a.