(lp1
F0.0015
aF1
aF1
aF0
aF0.0027499999999999998
aF1
aF0
aF0.0066249999999999998
aF0.016750000000000001
aF1
aF0.0135
aF0.01
aF0.01025
aF0.011375
aF1
aF0.01325
aF0.0086250000000000007
aF1
aF0.013625
aF0.012375000000000001
aF0.010874999999999999
aF1
aF0.013125
aF0.011124999999999999
aF1
aF0.01175
aF0.018374999999999999
aF0.012874999999999999
aF0.0086250000000000007
aF1
aF1
aF0.014125
aF0.015375
aF0.01225
aF0.011375
aF0.011124999999999999
aF0.012749999999999999
aF0.0098750000000000001
aF1
aF0.015125
aF0.0080000000000000002
aF1
aF0.0093749999999999997
aF0.010500000000000001
aF1
aF0.0135
aF0.018874999999999999
aF0.0086250000000000007
aF0.013875
aF0.014874999999999999
aF0.012125
aF1
aF0.010625000000000001
aF0.0083750000000000005
aF0.010874999999999999
aF1
aF0.011625
aF0.010999999999999999
aF0.01025
aF1
aF0.0086250000000000007
aF0.011124999999999999
aF1
aF0.0092499999999999995
aF0.015375
aF0.0086250000000000007
aF0.013875
aF0.0083750000000000005
aF0.011625
aF0.013125
aF1
aF1
aF0.0096249999999999999
aF0.012625000000000001
aF0.012500000000000001
aF0.014625000000000001
aF0.012375000000000001
aF0.01025
aF0.092624999999999999
aF1
aF0.017001114827201784
a.