(lp1
F1
aF1
aF1
aF1
aF1
aF1
aF0.021125000000000001
aF1
aF0.10625
aF0.10050000000000001
aF1
aF1
aF1
aF1
aF1
aF1
aF1
aF1
aF1
aF1
aF1
aF1
aF1
aF1
aF1
aF1
aF0.097375000000000003
aF1
aF1
aF1
aF1
aF1
aF0.094500000000000001
aF1
aF1
aF1
aF1
aF1
aF1
aF1
aF1
aF1
aF1
aF1
aF1
aF0.087999999999999995
aF1
aF1
aF1
aF0.081250000000000003
aF1
aF0.092499999999999999
aF0.089374999999999996
aF1
aF1
aF1
aF1
aF1
aF1
aF1
aF1
aF1
aF1
aF1
aF1
aF1
aF1
aF1
aF1
aF1
aF1
aF1
aF1
aF1
aF1
aF1
aF0.056125000000000001
aF1
aF1
aF1
aF0.10298216276477146
a.