(lp1
F1
aF0
aF0.0011249999999999999
aF0
aF1
aF0.014250000000000001
aF0.0040000000000000001
aF1
aF1
aF0.068250000000000005
aF1
aF1
aF1
aF1
aF1
aF1
aF1
aF1
aF1
aF1
aF1
aF1
aF1
aF1
aF1
aF1
aF1
aF1
aF1
aF1
aF1
aF1
aF1
aF1
aF1
aF1
aF0.059749999999999998
aF1
aF1
aF1
aF0.073124999999999996
aF1
aF0.063750000000000001
aF1
aF1
aF0.067250000000000004
aF0.067875000000000005
aF1
aF1
aF1
aF1
aF0.060999999999999999
aF1
aF0.064750000000000002
aF1
aF0.064125000000000001
aF1
aF1
aF1
aF1
aF1
aF0.064500000000000002
aF1
aF1
aF1
aF1
aF1
aF1
aF1
aF1
aF1
aF1
aF1
aF0.057125000000000002
aF1
aF1
aF1
aF1
aF1
aF0.076644370122630992
a.