(lp1
F0.00062500000000000001
aF1
aF0.00075000000000000002
aF1
aF0.012
aF0.0021250000000000002
aF1
aF0.020250000000000001
aF0.028125000000000001
aF0.50049999999999994
aF1
aF1
aF0.025375000000000002
aF0.030249999999999999
aF0.028250000000000001
aF1
aF1
aF0.028250000000000001
aF1
aF1
aF1
aF0.034000000000000002
aF0.0315
aF1
aF0.49862499999999998
aF0.034250000000000003
aF0.50687499999999996
aF1
aF1
aF1
aF0.028875000000000001
aF0.027875
aF0.033750000000000002
aF0.029624999999999999
aF0.026875
aF1
aF0.032750000000000001
aF0.033000000000000002
aF0.029000000000000001
aF1
aF0.032250000000000001
aF0.027375
aF0.029250000000000002
aF0.023625
aF1
aF1
aF1
aF0.032000000000000001
aF0.027
aF1
aF1
aF0.034000000000000002
aF1
aF0.024875000000000001
aF0.029874999999999999
aF1
aF0.029000000000000001
aF1
aF0.03875
aF0.046625
aF0.024750000000000001
aF1
aF0.024750000000000001
aF0.038875
aF1
aF0.030249999999999999
aF0.040375000000000001
aF1
aF0.027125
aF0.023125
aF0.023875
aF0.032125000000000001
aF0.036124999999999997
aF0.026875
aF1
aF0.026374999999999999
aF0.044249999999999998
aF0.035749999999999997
aF1
aF0.05475
aF0.042920847268673352
a.