(lp1
F0
aF0
aF1
aF0
aF1
aF0.0011249999999999999
aF0
aF0.0063749999999999996
aF0.01125
aF0.00975
aF0.01175
aF0.014500000000000001
aF0.01175
aF0.01375
aF1
aF0.01025
aF0.010874999999999999
aF0.01
aF0.013125
aF0.01325
aF0.01925
aF0.010749999999999999
aF0.018499999999999999
aF0.010625000000000001
aF0.01325
aF0.0087500000000000008
aF0.01175
aF0.012
aF1
aF0.012749999999999999
aF0.014125
aF1
aF0.013125
aF0.014
aF1
aF0.012625000000000001
aF0.01375
aF0.0082500000000000004
aF0.011875
aF0.0115
aF0.0094999999999999998
aF0.0093749999999999997
aF0.01225
aF0.01
aF0.0083750000000000005
aF1
aF0.013125
aF0.010375000000000001
aF0.010125
aF0.013875
aF0.011124999999999999
aF0.01225
aF0.013125
aF0.0078750000000000001
aF0.012749999999999999
aF0.0088749999999999992
aF0.014375000000000001
aF0.010375000000000001
aF0.011375
aF0.020125000000000001
aF0.01025
aF0.0091249999999999994
aF0.01525
aF0.0135
aF0.017624999999999998
aF0.014625000000000001
aF0.014125
aF0.012500000000000001
aF0.019375
aF0.012375000000000001
aF1
aF0.015125
aF0.014999999999999999
aF1
aF0.010999999999999999
aF0.012999999999999999
aF0.012749999999999999
aF0.010749999999999999
aF0.0078750000000000001
aF1
aF0.027591973244147156
a.