(lp1
F0.0050000000000000001
aF1
aF0.05525
aF1
aF1
aF1
aF1
aF1
aF1
aF1
aF1
aF1
aF0.089624999999999996
aF1
aF1
aF1
aF1
aF1
aF1
aF1
aF0.098500000000000004
aF1
aF1
aF1
aF1
aF1
aF1
aF1
aF1
aF1
aF1
aF1
aF1
aF1
aF1
aF1
aF1
aF1
aF1
aF1
aF1
aF1
aF1
aF1
aF1
aF0.50424999999999998
aF0.099500000000000005
aF0.49875000000000003
aF1
aF1
aF1
aF1
aF1
aF0.09325
aF1
aF1
aF1
aF1
aF1
aF1
aF1
aF1
aF1
aF1
aF1
aF1
aF1
aF1
aF1
aF1
aF1
aF1
aF1
aF1
aF0.097250000000000003
aF1
aF1
aF1
aF1
aF1
a.