(lp1
F0.00037500000000000001
aF0
aF0
aF0
aF0
aF0.000125
aF0
aF0.0030000000000000001
aF0.0018749999999999999
aF0.0026250000000000002
aF0.00062500000000000001
aF0.0025000000000000001
aF0.0016249999999999999
aF0.0015
aF0.00037500000000000001
aF0.001
aF0.00037500000000000001
aF0.0015
aF0.00062500000000000001
aF0.0021250000000000002
aF0.00175
aF0.0018749999999999999
aF0.0032499999999999999
aF0.0023749999999999999
aF0.0022499999999999998
aF0.0015
aF0.003875
aF0.0013749999999999999
aF0.00175
aF0.002875
aF0.0015
aF0.0025000000000000001
aF0.00175
aF0.00175
aF0.0013749999999999999
aF0.00175
aF0.0018749999999999999
aF0.00025000000000000001
aF0.00075000000000000002
aF0.0035000000000000001
aF0.0011249999999999999
aF0.00175
aF0.00075000000000000002
aF0.0046249999999999998
aF0.0015
aF0.0021250000000000002
aF0.001
aF0.0013749999999999999
aF0.0011249999999999999
aF0.002
aF0.0021250000000000002
aF0.00062500000000000001
aF0.00062500000000000001
aF0.0013749999999999999
aF0.00087500000000000002
aF0.002
aF0.0023749999999999999
aF0.001
aF0.003375
aF0.00125
aF0.0026250000000000002
aF0.00062500000000000001
aF0.002875
aF0.001
aF0.0013749999999999999
aF0.0015
aF0.0032499999999999999
aF0.0023749999999999999
aF0.00050000000000000001
aF0.0013749999999999999
aF0.00125
aF0.0021250000000000002
aF0.00125
aF0.003375
aF0.0013749999999999999
aF0.00175
aF0.0013749999999999999
aF0.00075000000000000002
aF0.0016249999999999999
aF0.0096249999999999999
aF0.0091973244147157199
a.