(lp1
F1
aF1
aF1
aF1
aF1
aF0.034750000000000003
aF1
aF1
aF1
aF1
aF1
aF1
aF1
aF1
aF1
aF1
aF1
aF1
aF1
aF1
aF1
aF1
aF0.12937499999999999
aF0.114125
aF1
aF1
aF1
aF1
aF1
aF1
aF1
aF1
aF1
aF1
aF1
aF1
aF1
aF1
aF1
aF1
aF1
aF1
aF1
aF1
aF1
aF1
aF1
aF1
aF0.10075000000000001
aF1
aF0.114375
aF0.098750000000000004
aF1
aF1
aF1
aF1
aF1
aF1
aF1
aF1
aF1
aF1
aF1
aF1
aF1
aF1
aF1
aF1
aF0.12687499999999999
aF1
aF1
aF1
aF1
aF1
aF1
aF1
aF1
aF1
aF0.002
aF0.0062500000000000003
aF0.00947603121516165
a.