(lp1
F1
aF0.046625
aF1
aF1
aF1
aF1
aF1
aF1
aF0.110125
aF0.48049999999999998
aF1
aF1
aF1
aF1
aF1
aF1
aF1
aF1
aF1
aF1
aF1
aF0.11
aF1
aF1
aF1
aF1
aF1
aF1
aF1
aF1
aF1
aF1
aF0.11637500000000001
aF1
aF1
aF1
aF1
aF1
aF1
aF1
aF1
aF1
aF1
aF1
aF1
aF1
aF1
aF1
aF0.4985
aF1
aF1
aF1
aF0.119625
aF0.50249999999999995
aF1
aF1
aF1
aF1
aF1
aF1
aF1
aF1
aF1
aF1
aF1
aF1
aF1
aF1
aF1
aF1
aF1
aF1
aF1
aF1
aF1
aF1
aF1
aF0.10975
aF0.0013749999999999999
aF0.0064999999999999997
aF0.010312151616499442
a.