(lp1
F1
aF1
aF1
aF1
aF1
aF1
aF1
aF1
aF1
aF1
aF1
aF0.107
aF1
aF1
aF1
aF1
aF0.12975
aF1
aF1
aF1
aF1
aF1
aF1
aF1
aF1
aF1
aF1
aF0.112125
aF1
aF1
aF1
aF1
aF1
aF1
aF1
aF1
aF1
aF1
aF1
aF1
aF1
aF1
aF1
aF1
aF1
aF1
aF1
aF1
aF1
aF1
aF1
aF1
aF1
aF1
aF1
aF1
aF1
aF1
aF1
aF1
aF1
aF1
aF1
aF0.1145
aF1
aF1
aF1
aF1
aF1
aF1
aF0.111125
aF1
aF1
aF1
aF1
aF1
aF1
aF1
aF1
aF0.14966555183946489
a.