(lp1
F0.00025000000000000001
aF0
aF0.022749999999999999
aF0
aF0.0036250000000000002
aF0.00125
aF0
aF0.0061250000000000002
aF0.010999999999999999
aF1
aF0.004875
aF0.0067499999999999999
aF0.0092499999999999995
aF0.0071250000000000003
aF0.0061250000000000002
aF0.010625000000000001
aF0.0089999999999999993
aF0.0091249999999999994
aF0.01125
aF0.0086250000000000007
aF1
aF0.011375
aF0.010749999999999999
aF0.0096249999999999999
aF0.01125
aF0.01125
aF0.013125
aF0.0074999999999999997
aF0.0094999999999999998
aF0.0082500000000000004
aF0.0067499999999999999
aF0.0086250000000000007
aF0.0042500000000000003
aF0.0085000000000000006
aF0.006875
aF0.01325
aF0.006875
aF1
aF0.006875
aF0.010125
aF0.0089999999999999993
aF0.0083750000000000005
aF0.013375
aF0.0093749999999999997
aF0.0072500000000000004
aF0.0080000000000000002
aF0.00975
aF1
aF0.01
aF0.0078750000000000001
aF0.01025
aF0.0074999999999999997
aF0.0089999999999999993
aF0.01125
aF0.0082500000000000004
aF0.0061250000000000002
aF1
aF0.0080000000000000002
aF0.0054999999999999997
aF0.0064999999999999997
aF1
aF0.010874999999999999
aF1
aF0.0054999999999999997
aF1
aF0.0073749999999999996
aF0.00975
aF0.0092499999999999995
aF0.010500000000000001
aF0.0073749999999999996
aF0.0053749999999999996
aF0.0091249999999999994
aF1
aF0.0082500000000000004
aF0.0086250000000000007
aF0.0093749999999999997
aF0.005875
aF0.071374999999999994
aF1
aF1
aF1
a.