(lp1
F1
aF1
aF1
aF0.0011249999999999999
aF0.038249999999999999
aF0.0067499999999999999
aF1
aF1
aF0.045624999999999999
aF1
aF1
aF1
aF1
aF1
aF1
aF0.060124999999999998
aF1
aF0.062
aF0.051499999999999997
aF0.055
aF1
aF1
aF1
aF1
aF1
aF1
aF1
aF1
aF0.057500000000000002
aF1
aF0.059624999999999997
aF1
aF0.059499999999999997
aF1
aF1
aF1
aF1
aF1
aF1
aF0.052374999999999998
aF1
aF1
aF1
aF1
aF1
aF0.062875
aF0.063625000000000001
aF0.060749999999999998
aF1
aF1
aF1
aF0.067625000000000005
aF1
aF1
aF1
aF1
aF1
aF1
aF1
aF0.056000000000000001
aF1
aF1
aF1
aF1
aF1
aF0.061624999999999999
aF1
aF0.047500000000000001
aF1
aF1
aF0.055
aF1
aF0.059249999999999997
aF1
aF1
aF1
aF1
aF1
aF1
aF1
aF1
a.