(lp1
F0
aF0
aF0
aF1
aF0.00087500000000000002
aF0.00050000000000000001
aF0
aF0.0040000000000000001
aF0.012
aF0.0080000000000000002
aF0.0043750000000000004
aF0.0057499999999999999
aF0.0047499999999999999
aF0.0061250000000000002
aF0.0041250000000000002
aF0.0081250000000000003
aF0.0064999999999999997
aF0.0051250000000000002
aF0.002875
aF0.005875
aF0.0096249999999999999
aF0.0086250000000000007
aF0.0072500000000000004
aF0.0037499999999999999
aF0.0083750000000000005
aF0.0053749999999999996
aF0.0074999999999999997
aF0.0041250000000000002
aF0.0093749999999999997
aF0.0092499999999999995
aF0.0047499999999999999
aF0.0064999999999999997
aF0.0050000000000000001
aF0.0074999999999999997
aF0.010625000000000001
aF0.0071250000000000003
aF0.010375000000000001
aF0.0081250000000000003
aF0.0047499999999999999
aF0.0076249999999999998
aF0.0061250000000000002
aF0.0081250000000000003
aF0.0031250000000000002
aF0.0040000000000000001
aF1
aF0.006875
aF0.0057499999999999999
aF1
aF0.0041250000000000002
aF0.005875
aF0.012
aF0.0074999999999999997
aF0.0062500000000000003
aF0.003375
aF0.012
aF0.0076249999999999998
aF0.0036250000000000002
aF0.006875
aF0.0077499999999999999
aF0.0074999999999999997
aF0.0076249999999999998
aF0.0062500000000000003
aF0.0081250000000000003
aF0.0072500000000000004
aF0.0043750000000000004
aF0.0052500000000000003
aF0.0076249999999999998
aF0.003875
aF1
aF0.0053749999999999996
aF0.0077499999999999999
aF0.0026250000000000002
aF0.004875
aF0.0042500000000000003
aF0.0062500000000000003
aF0.0044999999999999997
aF0.0061250000000000002
aF0.0060000000000000001
aF0.0022499999999999998
aF0.015875
aF0.013099219620958752
a.