(lp1
F0.0025000000000000001
aF1
aF1
aF1
aF1
aF1
aF1
aF1
aF0.060624999999999998
aF0.044499999999999998
aF0.053624999999999999
aF1
aF1
aF1
aF0.50375000000000003
aF1
aF1
aF1
aF1
aF0.060999999999999999
aF0.062
aF0.047875000000000001
aF1
aF0.055875000000000001
aF0.058000000000000003
aF1
aF1
aF1
aF0.066000000000000003
aF1
aF0.050625000000000003
aF0.058624999999999997
aF1
aF0.061249999999999999
aF1
aF1
aF1
aF1
aF1
aF1
aF0.048625000000000002
aF1
aF1
aF1
aF1
aF1
aF1
aF1
aF1
aF0.055875000000000001
aF1
aF0.052624999999999998
aF0.051624999999999997
aF1
aF0.49925000000000003
aF0.051624999999999997
aF1
aF1
aF0.070125000000000007
aF0.064500000000000002
aF0.071249999999999994
aF1
aF1
aF1
aF1
aF0.49925000000000003
aF1
aF1
aF0.063625000000000001
aF1
aF1
aF1
aF1
aF0.053999999999999999
aF1
aF1
aF0.053624999999999999
aF1
aF0.207875
aF1
a.