(lp1
F0.00025000000000000001
aF0
aF0
aF0
aF0.0026250000000000002
aF0.00087500000000000002
aF0
aF0.0030000000000000001
aF0.0070000000000000001
aF0.0070000000000000001
aF0.0064999999999999997
aF0.0047499999999999999
aF0.0062500000000000003
aF0.0031250000000000002
aF1
aF0.0043750000000000004
aF0.0046249999999999998
aF0.0093749999999999997
aF0.0041250000000000002
aF0.0035000000000000001
aF0.0062500000000000003
aF0.0081250000000000003
aF0.0063749999999999996
aF0.0051250000000000002
aF1
aF0.0067499999999999999
aF0.0054999999999999997
aF0.0067499999999999999
aF0.0066249999999999998
aF0.011375
aF0.0063749999999999996
aF0.0073749999999999996
aF0.0077499999999999999
aF0.0054999999999999997
aF0.0036250000000000002
aF0.004875
aF0.0098750000000000001
aF0.0046249999999999998
aF0.0062500000000000003
aF1
aF0.0041250000000000002
aF0.0052500000000000003
aF0.0082500000000000004
aF0.0067499999999999999
aF0.0060000000000000001
aF0.0046249999999999998
aF0.006875
aF0.0053749999999999996
aF0.0073749999999999996
aF0.0077499999999999999
aF0.011625
aF0.0040000000000000001
aF1
aF0.0053749999999999996
aF0.0062500000000000003
aF0.012375000000000001
aF0.0081250000000000003
aF0.0057499999999999999
aF0.0067499999999999999
aF1
aF0.006875
aF0.0063749999999999996
aF0.0098750000000000001
aF0.0064999999999999997
aF0.0085000000000000006
aF0.0089999999999999993
aF0.0067499999999999999
aF0.0086250000000000007
aF0.003875
aF1
aF0.0022499999999999998
aF0.0047499999999999999
aF0.0094999999999999998
aF0.0040000000000000001
aF0.0044999999999999997
aF0.0074999999999999997
aF0.0040000000000000001
aF0.0080000000000000002
aF0.0061250000000000002
aF0.012625000000000001
aF0.00947603121516165
a.