(lp1
F1
aF1
aF1
aF1
aF1
aF1
aF1
aF1
aF1
aF0.44974999999999998
aF1
aF1
aF1
aF1
aF1
aF1
aF0.107875
aF1
aF1
aF1
aF1
aF1
aF1
aF1
aF1
aF0.1135
aF1
aF1
aF1
aF1
aF1
aF1
aF1
aF1
aF1
aF1
aF1
aF1
aF1
aF1
aF1
aF1
aF0.49787500000000001
aF1
aF1
aF1
aF1
aF1
aF0.110375
aF1
aF1
aF1
aF1
aF1
aF1
aF1
aF1
aF1
aF1
aF1
aF1
aF1
aF0.50675000000000003
aF1
aF1
aF1
aF1
aF1
aF1
aF1
aF1
aF1
aF1
aF1
aF1
aF1
aF1
aF1
aF1
aF1
aF1
a.