(lp1
F1
aF0.00025000000000000001
aF1
aF1
aF1
aF0.0089999999999999993
aF1
aF0.028500000000000001
aF0.059624999999999997
aF1
aF1
aF1
aF1
aF1
aF0.059999999999999998
aF1
aF0.056750000000000002
aF1
aF1
aF0.068375000000000005
aF0.059624999999999997
aF0.066750000000000004
aF1
aF1
aF0.055750000000000001
aF0.059874999999999998
aF1
aF1
aF1
aF1
aF1
aF1
aF0.058500000000000003
aF1
aF1
aF0.066250000000000003
aF1
aF0.051249999999999997
aF1
aF1
aF0.064125000000000001
aF1
aF1
aF0.064875000000000002
aF1
aF1
aF0.054625
aF1
aF1
aF1
aF0.069500000000000006
aF1
aF1
aF0.055375000000000001
aF1
aF1
aF0.051499999999999997
aF0.061249999999999999
aF1
aF1
aF1
aF1
aF1
aF1
aF1
aF0.059249999999999997
aF1
aF1
aF1
aF1
aF1
aF1
aF1
aF1
aF1
aF1
aF1
aF1
aF1
aF1
aF1
a.