(lp1
F0
aF0
aF0
aF1
aF0.0040000000000000001
aF1
aF1
aF0.017874999999999999
aF0.013625
aF0.018624999999999999
aF0.014500000000000001
aF0.011124999999999999
aF0.0082500000000000004
aF0.015125
aF0.016375000000000001
aF1
aF0.021499999999999998
aF0.010375000000000001
aF0.019375
aF0.014
aF0.011875
aF1
aF0.010999999999999999
aF0.017749999999999998
aF0.010999999999999999
aF0.020250000000000001
aF0.0074999999999999997
aF0.016250000000000001
aF0.01975
aF0.013125
aF0.017125000000000001
aF0.018124999999999999
aF0.011625
aF0.012999999999999999
aF0.014375000000000001
aF1
aF0.021125000000000001
aF0.015125
aF0.0092499999999999995
aF1
aF0.0115
aF0.00975
aF0.010874999999999999
aF0.014250000000000001
aF0.012999999999999999
aF0.012125
aF1
aF0.015125
aF0.012625000000000001
aF1
aF0.014250000000000001
aF1
aF0.012625000000000001
aF0.021125000000000001
aF1
aF1
aF0.013125
aF0.018374999999999999
aF1
aF0.013125
aF0.013375
aF1
aF0.014999999999999999
aF0.012
aF1
aF1
aF1
aF0.016125
aF0.016375000000000001
aF0.014250000000000001
aF0.016750000000000001
aF0.012749999999999999
aF0.017749999999999998
aF0.012
aF0.015125
aF0.012874999999999999
aF0.014500000000000001
aF0.084250000000000005
aF0.022499999999999999
aF1
a.