(lp1
F0
aF0
aF0
aF0
aF0
aF0
aF0
aF0
aF0
aF0
aF0.000125
aF0
aF0
aF0
aF0
aF0.000125
aF0
aF0
aF0
aF0
aF0
aF0
aF0.000125
aF0
aF0.00037500000000000001
aF0
aF0.00050000000000000001
aF0
aF0
aF0.000125
aF0
aF0
aF0
aF0
aF0
aF0
aF0
aF0.00062500000000000001
aF0
aF0
aF0.000125
aF0.00062500000000000001
aF0
aF0.00075000000000000002
aF0
aF0
aF0
aF0
aF0
aF0
aF0
aF0
aF0
aF0
aF0
aF0
aF0
aF0
aF0.000125
aF0
aF0
aF0
aF0
aF0
aF0
aF0
aF0
aF0
aF0.000125
aF0
aF0
aF0.00050000000000000001
aF0
aF0
aF0
aF0
aF0.000125
aF0.000125
aF0
aF0.00025000000000000001
aF0.0011148272017837235
a.