(lp1
F1
aF0
aF0
aF0
aF0.0085000000000000006
aF0.0026250000000000002
aF0
aF0.014125
aF0.016375000000000001
aF1
aF0.016500000000000001
aF0.022374999999999999
aF0.010749999999999999
aF1
aF0.016875000000000001
aF1
aF0.017500000000000002
aF0.014874999999999999
aF0.00975
aF0.012749999999999999
aF1
aF0.012
aF0.019
aF0.022624999999999999
aF1
aF0.014250000000000001
aF0.011875
aF0.0089999999999999993
aF0.013375
aF0.014625000000000001
aF0.018374999999999999
aF1
aF1
aF0.01575
aF0.0155
aF0.012500000000000001
aF0.01375
aF1
aF1
aF0.0063749999999999996
aF0.013875
aF0.011124999999999999
aF0.020375000000000001
aF1
aF0.015125
aF0.010749999999999999
aF0.011124999999999999
aF0.012625000000000001
aF0.01525
aF0.0098750000000000001
aF0.012999999999999999
aF0.017500000000000002
aF0.0092499999999999995
aF0.016250000000000001
aF0.0115
aF0.014874999999999999
aF0.013125
aF0.015125
aF0.011375
aF1
aF0.00975
aF0.011875
aF0.010375000000000001
aF0.012999999999999999
aF0.016875000000000001
aF1
aF1
aF0.013875
aF1
aF0.012749999999999999
aF0.013625
aF0.0077499999999999999
aF1
aF0.01225
aF1
aF0.014
aF1
aF0.10324999999999999
aF0.0115
aF1
aF0.02355072463768116
a.