(lp1
F1
aF1
aF0.00087500000000000002
aF0
aF1
aF1
aF1
aF0.017375000000000002
aF1
aF1
aF0.025375000000000002
aF0.030124999999999999
aF0.030374999999999999
aF0.024125000000000001
aF0.025624999999999998
aF0.025375000000000002
aF0.024500000000000001
aF1
aF1
aF0.024375000000000001
aF1
aF1
aF1
aF1
aF1
aF1
aF0.036999999999999998
aF1
aF1
aF0.033875000000000002
aF0.032375000000000001
aF0.024875000000000001
aF0.032875000000000001
aF1
aF0.029874999999999999
aF1
aF1
aF1
aF1
aF0.028875000000000001
aF0.4995
aF0.024375000000000001
aF0.034250000000000003
aF1
aF0.023
aF0.0275
aF0.49125000000000002
aF0.032125000000000001
aF1
aF1
aF0.0315
aF0.030499999999999999
aF0.034250000000000003
aF1
aF1
aF0.026249999999999999
aF1
aF1
aF1
aF0.026124999999999999
aF0.0275
aF1
aF0.032125000000000001
aF1
aF1
aF0.023875
aF1
aF0.037874999999999999
aF1
aF0.029125000000000002
aF0.03075
aF0.028375000000000001
aF0.032250000000000001
aF0.029374999999999998
aF0.020375000000000001
aF0.028750000000000001
aF0.026249999999999999
aF1
aF1
aF0.042875000000000003
aF1
a.