(lp1
F1
aF0
aF1
aF0
aF0.002
aF0.00075000000000000002
aF0
aF0.0076249999999999998
aF0.0040000000000000001
aF1
aF0.003375
aF0.0077499999999999999
aF1
aF1
aF0.0051250000000000002
aF0.0062500000000000003
aF0.004875
aF0.0046249999999999998
aF1
aF0.0092499999999999995
aF0.01
aF0.0076249999999999998
aF0.0050000000000000001
aF0.0057499999999999999
aF0.0089999999999999993
aF0.0050000000000000001
aF1
aF0.0052500000000000003
aF0.0063749999999999996
aF0.0061250000000000002
aF0.0098750000000000001
aF0.01025
aF0.0046249999999999998
aF0.0066249999999999998
aF0.0042500000000000003
aF0.0064999999999999997
aF0.0093749999999999997
aF0.003875
aF0.0051250000000000002
aF0.004875
aF0.0052500000000000003
aF0.0071250000000000003
aF0.0066249999999999998
aF0.0037499999999999999
aF0.0062500000000000003
aF0.0078750000000000001
aF0.003875
aF0.0071250000000000003
aF0.010125
aF0.0063749999999999996
aF0.0051250000000000002
aF0.0073749999999999996
aF0.0023749999999999999
aF0.0043750000000000004
aF0.0052500000000000003
aF0.0021250000000000002
aF0.0037499999999999999
aF0.004875
aF0.0064999999999999997
aF0.0077499999999999999
aF0.0067499999999999999
aF0.0056249999999999998
aF0.0077499999999999999
aF0.0092499999999999995
aF0.0071250000000000003
aF1
aF0.0092499999999999995
aF0.0074999999999999997
aF0.0066249999999999998
aF0.0081250000000000003
aF0.0053749999999999996
aF0.0047499999999999999
aF0.0080000000000000002
aF0.0067499999999999999
aF0.0056249999999999998
aF0.0037499999999999999
aF0.0076249999999999998
aF0.070499999999999993
aF1
aF1
aF1
a.