(lp1
F1
aF0.001
aF1
aF1
aF1
aF0.043249999999999997
aF1
aF0.061624999999999999
aF1
aF1
aF0.106625
aF1
aF1
aF0.096625000000000003
aF1
aF1
aF1
aF1
aF1
aF1
aF1
aF1
aF1
aF1
aF1
aF1
aF1
aF1
aF1
aF1
aF1
aF1
aF1
aF1
aF0.10925
aF1
aF1
aF1
aF1
aF1
aF1
aF1
aF1
aF1
aF1
aF1
aF1
aF1
aF1
aF1
aF0.105875
aF1
aF1
aF1
aF1
aF1
aF1
aF1
aF1
aF1
aF1
aF1
aF1
aF1
aF1
aF1
aF1
aF1
aF1
aF1
aF1
aF1
aF1
aF1
aF0.10050000000000001
aF0.50424999999999998
aF1
aF1
aF1
aF1
aF1
a.