(lp1
F0
aF0
aF0
aF0
aF0.00125
aF0
aF0
aF0.0021250000000000002
aF0.0031250000000000002
aF0.0022499999999999998
aF0.00125
aF0.0035000000000000001
aF0.0015
aF0.0021250000000000002
aF0.0023749999999999999
aF0.0011249999999999999
aF0.00087500000000000002
aF0.0016249999999999999
aF0.0027499999999999998
aF0.001
aF0.0030000000000000001
aF0.0044999999999999997
aF0.002
aF0.00175
aF0.0018749999999999999
aF0.0027499999999999998
aF0.0036250000000000002
aF0.0018749999999999999
aF0.0021250000000000002
aF0.00175
aF0.0022499999999999998
aF0.0016249999999999999
aF0.00125
aF0.0040000000000000001
aF0.0021250000000000002
aF0.0027499999999999998
aF0.0016249999999999999
aF0.0023749999999999999
aF0.00125
aF0.0040000000000000001
aF0.0035000000000000001
aF0.0021250000000000002
aF0.0015
aF0.0011249999999999999
aF0.0015
aF0.0022499999999999998
aF0.0040000000000000001
aF0.0051250000000000002
aF0.0047499999999999999
aF0.002875
aF0.0026250000000000002
aF0.002875
aF0.002875
aF1
aF0.0018749999999999999
aF0.00087500000000000002
aF0.002
aF0.0025000000000000001
aF0.003875
aF0.0022499999999999998
aF0.00175
aF0.0032499999999999999
aF0.0015
aF0.0043750000000000004
aF0.002
aF0.0061250000000000002
aF0.0032499999999999999
aF0.0016249999999999999
aF0.00087500000000000002
aF0.0037499999999999999
aF0.0025000000000000001
aF0.0015
aF0.0021250000000000002
aF0.0022499999999999998
aF0.0035000000000000001
aF0.002875
aF1
aF0.043374999999999997
aF1
aF1
aF1
a.