(lp1
F1
aF1
aF0.022374999999999999
aF0
aF1
aF0.021250000000000002
aF0.003875
aF0.037999999999999999
aF1
aF1
aF1
aF1
aF1
aF1
aF1
aF1
aF0.061874999999999999
aF0.066125000000000003
aF1
aF1
aF1
aF1
aF0.058874999999999997
aF0.072999999999999995
aF1
aF1
aF1
aF1
aF1
aF1
aF1
aF1
aF1
aF1
aF1
aF0.057875000000000003
aF1
aF0.063500000000000001
aF0.056750000000000002
aF1
aF1
aF0.058375000000000003
aF1
aF1
aF1
aF1
aF1
aF1
aF1
aF1
aF0.066750000000000004
aF1
aF1
aF1
aF1
aF1
aF0.058624999999999997
aF1
aF1
aF0.498
aF0.065875000000000003
aF1
aF1
aF0.061624999999999999
aF1
aF1
aF0.053999999999999999
aF0.060249999999999998
aF1
aF1
aF1
aF0.049125000000000002
aF1
aF0.049625000000000002
aF0.22062499999999999
aF1
aF1
aF1
aF1
aF0.06967670011148272
a.