(lp1
F1
aF0
aF0
aF0
aF0.014874999999999999
aF0.00037500000000000001
aF0
aF1
aF0.015625
aF0.016
aF0.010375000000000001
aF0.014874999999999999
aF1
aF0.010874999999999999
aF0.014500000000000001
aF0.0115
aF0.016625000000000001
aF0.010375000000000001
aF0.013875
aF0.014375000000000001
aF0.012999999999999999
aF0.01025
aF0.016
aF0.012125
aF0.01
aF1
aF1
aF0.014500000000000001
aF1
aF0.017874999999999999
aF0.013125
aF1
aF1
aF0.016375000000000001
aF0.012125
aF0.016750000000000001
aF0.012749999999999999
aF0.01375
aF0.016250000000000001
aF0.012625000000000001
aF1
aF0.014625000000000001
aF1
aF0.01375
aF0.010749999999999999
aF0.016750000000000001
aF0.0086250000000000007
aF0.014375000000000001
aF0.010125
aF0.018874999999999999
aF0.016625000000000001
aF1
aF0.012625000000000001
aF0.014500000000000001
aF0.018374999999999999
aF0.021624999999999998
aF0.016500000000000001
aF0.01575
aF0.010625000000000001
aF0.016500000000000001
aF1
aF0.016375000000000001
aF1
aF0.014
aF0.0155
aF0.0115
aF0.016500000000000001
aF0.016125
aF0.013875
aF0.016625000000000001
aF0.01325
aF1
aF0.019625
aF0.018874999999999999
aF0.012
aF0.01225
aF0.01325
aF0.0081250000000000003
aF0.01
aF1
aF1
a.