(lp1
F0
aF0
aF0
aF0
aF0.0018749999999999999
aF0.001
aF0
aF0.0032499999999999999
aF0.0074999999999999997
aF0.0037499999999999999
aF0.0036250000000000002
aF0.0052500000000000003
aF0.0036250000000000002
aF0.0041250000000000002
aF0.0057499999999999999
aF0.0073749999999999996
aF0.0044999999999999997
aF0.0051250000000000002
aF0.0064999999999999997
aF0.0077499999999999999
aF0.004875
aF0.01175
aF0.0044999999999999997
aF0.0067499999999999999
aF0.0083750000000000005
aF0.0043750000000000004
aF0.0093749999999999997
aF0.0057499999999999999
aF0.0064999999999999997
aF0.0071250000000000003
aF1
aF0.0026250000000000002
aF0.0063749999999999996
aF0.0074999999999999997
aF0.005875
aF0.0066249999999999998
aF0.0082500000000000004
aF0.004875
aF1
aF0.0064999999999999997
aF0.0052500000000000003
aF0.0047499999999999999
aF0.0076249999999999998
aF0.0092499999999999995
aF1
aF0.0080000000000000002
aF0.0067499999999999999
aF0.0063749999999999996
aF0.0067499999999999999
aF0.0064999999999999997
aF1
aF0.0081250000000000003
aF0.0062500000000000003
aF0.0062500000000000003
aF0.0072500000000000004
aF1
aF1
aF0.0063749999999999996
aF0.0036250000000000002
aF0.0061250000000000002
aF0.0081250000000000003
aF0.004875
aF0.0056249999999999998
aF0.0037499999999999999
aF0.0092499999999999995
aF0.011375
aF0.0062500000000000003
aF0.0076249999999999998
aF0.0080000000000000002
aF0.0080000000000000002
aF0.0086250000000000007
aF0.0043750000000000004
aF0.0053749999999999996
aF0.0085000000000000006
aF0.0043750000000000004
aF0.0070000000000000001
aF0.0056249999999999998
aF0.0098750000000000001
aF0.0036250000000000002
aF0.014250000000000001
aF0.010172798216276478
a.