(lp1
F1
aF1
aF1
aF1
aF0.34037499999999998
aF1
aF0.031
aF1
aF1
aF1
aF1
aF1
aF1
aF1
aF1
aF1
aF1
aF1
aF1
aF1
aF1
aF1
aF0.10475
aF1
aF1
aF1
aF1
aF1
aF1
aF1
aF1
aF1
aF0.10137500000000001
aF1
aF1
aF1
aF1
aF1
aF1
aF1
aF1
aF0.111375
aF1
aF1
aF1
aF1
aF1
aF1
aF1
aF1
aF1
aF0.49162499999999998
aF1
aF1
aF1
aF1
aF1
aF1
aF1
aF1
aF1
aF1
aF1
aF1
aF1
aF1
aF1
aF1
aF1
aF1
aF1
aF1
aF1
aF1
aF1
aF1
aF1
aF1
aF0.14999999999999999
aF1
aF0.10117056856187291
a.