(lp1
F0.00050000000000000001
aF0.47299999999999998
aF1
aF0
aF0.0026250000000000002
aF0.00037500000000000001
aF0
aF0.002875
aF0.0071250000000000003
aF1
aF0.005875
aF0.0066249999999999998
aF0.0041250000000000002
aF0.0066249999999999998
aF0.0063749999999999996
aF0.0051250000000000002
aF1
aF0.0040000000000000001
aF0.0071250000000000003
aF0.0089999999999999993
aF0.010375000000000001
aF0.0086250000000000007
aF0.006875
aF0.0060000000000000001
aF0.0042500000000000003
aF0.0042500000000000003
aF0.0054999999999999997
aF1
aF0.0044999999999999997
aF0.0082500000000000004
aF0.0089999999999999993
aF0.010874999999999999
aF1
aF0.0057499999999999999
aF0.0083750000000000005
aF0.0089999999999999993
aF0.0078750000000000001
aF0.0092499999999999995
aF0.0066249999999999998
aF0.0089999999999999993
aF1
aF0.010375000000000001
aF0.0073749999999999996
aF1
aF0.006875
aF0.0070000000000000001
aF0.0072500000000000004
aF0.0046249999999999998
aF0.006875
aF0.0115
aF0.0082500000000000004
aF0.0052500000000000003
aF0.0064999999999999997
aF0.0066249999999999998
aF0.0076249999999999998
aF0.003875
aF0.0087500000000000008
aF1
aF0.0057499999999999999
aF1
aF0.005875
aF0.0085000000000000006
aF0.0074999999999999997
aF0.005875
aF0.00975
aF0.0073749999999999996
aF0.005875
aF0.002875
aF0.0041250000000000002
aF0.0072500000000000004
aF1
aF0.0042500000000000003
aF0.0076249999999999998
aF0.0081250000000000003
aF0.0043750000000000004
aF0.0064999999999999997
aF0.006875
aF0.0089999999999999993
aF0.01
aF0.017749999999999998
aF0.010172798216276478
a.