(lp1
F0.0011249999999999999
aF0
aF0
aF0
aF1
aF0.0013749999999999999
aF0
aF0.0086250000000000007
aF0.016625000000000001
aF0.01125
aF1
aF0.01025
aF0.016500000000000001
aF0.012625000000000001
aF0.013875
aF0.0135
aF0.018374999999999999
aF0.013875
aF0.014625000000000001
aF0.013375
aF0.014625000000000001
aF0.0092499999999999995
aF1
aF0.014
aF0.015375
aF0.012874999999999999
aF0.015375
aF0.01
aF0.0092499999999999995
aF1
aF1
aF1
aF0.014125
aF0.014999999999999999
aF0.012375000000000001
aF0.011124999999999999
aF0.014999999999999999
aF1
aF1
aF1
aF0.014625000000000001
aF0.014500000000000001
aF0.014375000000000001
aF1
aF0.014625000000000001
aF0.015625
aF1
aF1
aF0.014625000000000001
aF0.019125
aF0.014500000000000001
aF1
aF1
aF1
aF0.013375
aF1
aF0.018499999999999999
aF0.012125
aF0.012749999999999999
aF0.015125
aF0.014375000000000001
aF0.014625000000000001
aF1
aF0.014
aF0.016125
aF0.01025
aF0.010125
aF0.010500000000000001
aF0.01375
aF1
aF0.012874999999999999
aF0.01525
aF0.01325
aF0.014500000000000001
aF0.011375
aF1
aF1
aF0.012749999999999999
aF0.016625000000000001
aF0.039625
aF0.019091415830546264
a.