(lp1
F0.0078750000000000001
aF0.0016249999999999999
aF1
aF0.00050000000000000001
aF0.35199999999999998
aF1
aF0.000125
aF1
aF1
aF0.020500000000000001
aF1
aF1
aF1
aF1
aF0.035000000000000003
aF1
aF0.031375
aF1
aF0.031875000000000001
aF0.026249999999999999
aF1
aF1
aF0.032875000000000001
aF1
aF0.027875
aF0.028625000000000001
aF0.033750000000000002
aF0.032125000000000001
aF1
aF1
aF1
aF0.033625000000000002
aF0.510625
aF1
aF0.035749999999999997
aF0.029125000000000002
aF1
aF0.026875
aF0.025125000000000001
aF0.026499999999999999
aF0.032125000000000001
aF0.027
aF0.025375000000000002
aF1
aF1
aF1
aF1
aF0.025000000000000001
aF0.027375
aF0.032375000000000001
aF0.037374999999999999
aF1
aF0.027875
aF1
aF0.026374999999999999
aF0.032125000000000001
aF1
aF0.026249999999999999
aF1
aF1
aF1
aF1
aF1
aF0.030624999999999999
aF0.026374999999999999
aF0.027875
aF1
aF0.038374999999999999
aF0.033875000000000002
aF0.030374999999999999
aF1
aF0.02725
aF0.033000000000000002
aF0.033250000000000002
aF1
aF0.026124999999999999
aF0.025125000000000001
aF1
aF1
aF0.040125000000000001
aF0.038461538461538464
a.