(lp1
F0.0021250000000000002
aF1
aF1
aF0
aF0.40699999999999997
aF0.0052500000000000003
aF0.000125
aF1
aF1
aF1
aF0.028000000000000001
aF1
aF0.027875
aF0.024
aF1
aF1
aF1
aF0.027125
aF0.028250000000000001
aF0.029999999999999999
aF1
aF0.028875000000000001
aF0.029374999999999998
aF1
aF0.032250000000000001
aF1
aF1
aF0.029749999999999999
aF0.028500000000000001
aF1
aF0.030499999999999999
aF1
aF1
aF0.498
aF1
aF0.026499999999999999
aF1
aF0.02775
aF0.029624999999999999
aF0.019625
aF0.025125000000000001
aF1
aF1
aF1
aF0.034375000000000003
aF0.025624999999999998
aF1
aF1
aF1
aF1
aF0.037374999999999999
aF0.027625
aF1
aF0.027875
aF0.029624999999999999
aF1
aF0.027875
aF0.030374999999999999
aF0.02375
aF0.032375000000000001
aF1
aF0.029874999999999999
aF0.02775
aF0.026624999999999999
aF0.027125
aF0.029999999999999999
aF1
aF0.029499999999999998
aF1
aF0.029374999999999998
aF1
aF1
aF1
aF1
aF0.032125000000000001
aF0.02725
aF1
aF1
aF0.028750000000000001
aF0.14224999999999999
aF1
a.