(lp1
F0.0016249999999999999
aF0
aF1
aF0.00025000000000000001
aF0.40987499999999999
aF0.0043750000000000004
aF1
aF1
aF1
aF1
aF0.0275
aF1
aF0.026499999999999999
aF1
aF0.026749999999999999
aF1
aF0.025000000000000001
aF0.028750000000000001
aF0.032875000000000001
aF0.029499999999999998
aF1
aF1
aF1
aF1
aF0.031625
aF0.02725
aF1
aF1
aF0.035874999999999997
aF0.028750000000000001
aF1
aF0.025375000000000002
aF0.028000000000000001
aF1
aF1
aF0.029999999999999999
aF0.026124999999999999
aF1
aF1
aF0.029624999999999999
aF0.033500000000000002
aF1
aF0.030499999999999999
aF1
aF0.026499999999999999
aF0.026249999999999999
aF1
aF0.02375
aF0.037374999999999999
aF0.032250000000000001
aF0.499
aF0.028750000000000001
aF0.029624999999999999
aF0.031625
aF0.024875000000000001
aF0.027375
aF1
aF1
aF1
aF0.028125000000000001
aF0.0235
aF0.032500000000000001
aF1
aF1
aF1
aF0.026624999999999999
aF0.026749999999999999
aF0.035624999999999997
aF1
aF0.033750000000000002
aF1
aF1
aF0.025250000000000002
aF1
aF1
aF0.029374999999999998
aF1
aF1
aF0.030875
aF1
aF0.13754180602006688
a.