(lp1
F0
aF0
aF0
aF0
aF0
aF0
aF0
aF0
aF0
aF0
aF0
aF0
aF0
aF0
aF0
aF0
aF0
aF0
aF0
aF0
aF0
aF0
aF0
aF0
aF0
aF0
aF0
aF0
aF0
aF0
aF0
aF0
aF0
aF0
aF0
aF0.000125
aF0
aF0
aF0
aF0.00075000000000000002
aF0.000125
aF0
aF0
aF0
aF0
aF0.000125
aF0
aF0
aF0
aF0
aF0
aF0
aF0
aF0
aF0
aF0
aF0
aF0
aF0
aF0
aF0
aF0
aF0
aF0.00075000000000000002
aF0
aF0
aF0
aF0
aF0.00025000000000000001
aF0
aF0
aF0.000125
aF0
aF0
aF0
aF0
aF0
aF0
aF0
aF0
aF0.00041806020066889631
a.