(lp1
F0.0016249999999999999
aF0.00050000000000000001
aF1
aF0
aF0.018624999999999999
aF0.0046249999999999998
aF1
aF0.017000000000000001
aF1
aF0.020625000000000001
aF1
aF0.026875
aF1
aF0.028250000000000001
aF0.034750000000000003
aF0.018749999999999999
aF0.0275
aF0.032625000000000001
aF0.032250000000000001
aF0.033375000000000002
aF0.037374999999999999
aF0.03125
aF0.026749999999999999
aF1
aF0.49362499999999998
aF1
aF1
aF1
aF1
aF1
aF0.49962499999999999
aF0.034750000000000003
aF1
aF1
aF0.025125000000000001
aF1
aF1
aF1
aF0.030499999999999999
aF1
aF0.034375000000000003
aF0.50012500000000004
aF0.032625000000000001
aF0.023125
aF0.024875000000000001
aF1
aF0.029749999999999999
aF0.023
aF0.027125
aF0.025125000000000001
aF1
aF1
aF1
aF1
aF0.035499999999999997
aF1
aF1
aF1
aF1
aF0.034500000000000003
aF1
aF0.022624999999999999
aF0.022624999999999999
aF1
aF0.037749999999999999
aF1
aF1
aF0.021874999999999999
aF1
aF0.029749999999999999
aF0.029874999999999999
aF0.033625000000000002
aF0.030249999999999999
aF1
aF0.025874999999999999
aF1
aF1
aF1
aF1
aF1
aF0.037625418060200672
a.