(lp1
F1
aF1
aF1
aF1
aF0.36199999999999999
aF0.045999999999999999
aF1
aF1
aF0.097750000000000004
aF1
aF1
aF1
aF1
aF1
aF1
aF1
aF1
aF1
aF1
aF0.11550000000000001
aF1
aF1
aF1
aF1
aF1
aF0.109875
aF1
aF1
aF1
aF1
aF1
aF1
aF1
aF1
aF1
aF1
aF0.110375
aF1
aF1
aF0.114375
aF1
aF1
aF1
aF1
aF1
aF0.090874999999999997
aF1
aF1
aF1
aF1
aF1
aF1
aF1
aF1
aF1
aF1
aF1
aF1
aF1
aF1
aF1
aF1
aF1
aF1
aF1
aF1
aF1
aF1
aF1
aF0.093875
aF1
aF1
aF1
aF1
aF1
aF1
aF1
aF1
aF1
aF1
aF1
a.