(lp1
F0.00025000000000000001
aF0.47037499999999999
aF0
aF0.00050000000000000001
aF0.34937499999999999
aF0.0023749999999999999
aF0
aF0.0067499999999999999
aF1
aF1
aF0.006875
aF0.012999999999999999
aF1
aF0.01025
aF0.01175
aF0.017125000000000001
aF0.01025
aF0.01375
aF1
aF1
aF0.0155
aF1
aF1
aF1
aF0.01
aF0.010999999999999999
aF0.014250000000000001
aF1
aF1
aF1
aF0.01325
aF0.013875
aF0.015875
aF0.014
aF0.016875000000000001
aF0.010749999999999999
aF0.012874999999999999
aF0.015125
aF0.015125
aF0.01525
aF1
aF1
aF0.021000000000000001
aF0.011124999999999999
aF0.012375000000000001
aF0.010125
aF0.0093749999999999997
aF1
aF1
aF1
aF0.011875
aF1
aF0.011124999999999999
aF0.01375
aF0.014749999999999999
aF0.012
aF0.0155
aF0.012125
aF1
aF0.014999999999999999
aF0.018499999999999999
aF1
aF0.01325
aF1
aF0.018124999999999999
aF0.01525
aF1
aF0.019375
aF0.014749999999999999
aF0.012125
aF0.012
aF0.017749999999999998
aF0.00975
aF0.011875
aF0.0098750000000000001
aF0.01125
aF1
aF1
aF0.014250000000000001
aF1
aF0.026477146042363432
a.