(lp1
F0.000125
aF0
aF0
aF0
aF0.000125
aF0
aF0
aF0
aF0.00175
aF0.00062500000000000001
aF0
aF0.00175
aF0.0013749999999999999
aF0.000125
aF0.00037500000000000001
aF0.00087500000000000002
aF0.0015
aF0.00037500000000000001
aF0.00037500000000000001
aF0.00037500000000000001
aF0
aF0.0015
aF0.00075000000000000002
aF0.001
aF0.0018749999999999999
aF0.001
aF0.00075000000000000002
aF0.00125
aF0.00037500000000000001
aF0.00037500000000000001
aF0.00175
aF0.0016249999999999999
aF0.00037500000000000001
aF0.001
aF0.00087500000000000002
aF0.0011249999999999999
aF0.0016249999999999999
aF0.001
aF0.00025000000000000001
aF0.0013749999999999999
aF0
aF0.001
aF0.002
aF0.00125
aF0.00025000000000000001
aF0.0011249999999999999
aF0.00075000000000000002
aF0.00125
aF0.002
aF0.00037500000000000001
aF0.0013749999999999999
aF0.00075000000000000002
aF0.0013749999999999999
aF0
aF0.0015
aF0.0016249999999999999
aF0.00037500000000000001
aF0.0016249999999999999
aF0.001
aF0.0023749999999999999
aF0.000125
aF0.00062500000000000001
aF0.00037500000000000001
aF0.00075000000000000002
aF0.0021250000000000002
aF0.0015
aF0.0016249999999999999
aF0
aF0.001
aF0.00050000000000000001
aF0.000125
aF0.00062500000000000001
aF0.00025000000000000001
aF0.001
aF0.0018749999999999999
aF0.0015
aF0
aF0.00062500000000000001
aF0.0016249999999999999
aF0.004875
aF0.005992196209587514
a.