(lp1
F0.0035000000000000001
aF1
aF1
aF0
aF1
aF1
aF1
aF0.029499999999999998
aF1
aF0.059124999999999997
aF1
aF1
aF1
aF1
aF1
aF0.065750000000000003
aF1
aF1
aF1
aF1
aF1
aF1
aF1
aF1
aF0.063375000000000001
aF1
aF1
aF1
aF1
aF1
aF1
aF1
aF1
aF0.060374999999999998
aF1
aF1
aF1
aF1
aF1
aF0.058749999999999997
aF1
aF1
aF1
aF1
aF1
aF0.067250000000000004
aF0.058999999999999997
aF1
aF1
aF1
aF1
aF1
aF1
aF1
aF0.050250000000000003
aF1
aF1
aF0.063250000000000001
aF1
aF1
aF0.063250000000000001
aF1
aF1
aF0.054125
aF0.50012500000000004
aF1
aF1
aF1
aF1
aF1
aF1
aF1
aF1
aF1
aF1
aF1
aF0.27337499999999998
aF1
aF1
aF1
aF1
a.